; Function Attrs: mustprogress nounwind uwtable
define internal fastcc void @"_ZN5folly6detail14ScopeGuardImplIZN8proxygen2hq13HQStreamCodec17onHeadersCompleteENS2_14HTTPHeaderSizeEbE3$_0Lb1EED2Ev"(i8 %this.0.val, ptr %this.8.val) unnamed_addr #4 align 2 personality ptr @__gxx_personality_v0 {
entry:
  %0 = and i8 %this.0.val, 1
  %tobool.not = icmp eq i8 %0, 0
  br i1 %tobool.not, label %if.then, label %if.end

if.then:                                          ; preds = %entry
  %vtable.i.i = load ptr, ptr %this.8.val, align 16
  %vfn.i.i = getelementptr inbounds i8, ptr %vtable.i.i, i64 88
  %1 = load ptr, ptr %vfn.i.i, align 8
  invoke void %1(ptr noundef nonnull align 16 dereferenceable(160) %this.8.val, i1 noundef zeroext false)
          to label %if.end unwind label %lpad.i.i

lpad.i.i:                                         ; preds = %if.then
  %2 = landingpad { ptr, i32 }
          catch ptr null
  %3 = extractvalue { ptr, i32 } %2, 0
  %4 = tail call ptr @__cxa_begin_catch(ptr %3) #21
  tail call void @_ZN5folly6detail18ScopeGuardImplBase9terminateEv()
  unreachable

if.end:                                           ; preds = %if.then, %entry
  ret void
}